; Function Attrs: nounwind uwtable
define hidden zeroext i1 @SDL_GetJoystickButton_REAL(ptr noundef %0, i32 noundef %1) local_unnamed_addr #1 {
  %3 = tail call i32 @SDL_AddAtomicInt_REAL(ptr noundef nonnull @SDL_joystick_lock_pending, i32 noundef 1) #13
  %4 = load ptr, ptr @SDL_joystick_lock, align 8
  tail call void @SDL_LockMutex_REAL(ptr noundef %4) #13
  %5 = tail call i32 @SDL_AddAtomicInt_REAL(ptr noundef nonnull @SDL_joystick_lock_pending, i32 noundef -1) #13
  %6 = load i32, ptr @SDL_joysticks_locked, align 4
  %7 = add nsw i32 %6, 1
  store i32 %7, ptr @SDL_joysticks_locked, align 4
  %8 = tail call zeroext i1 @SDL_ObjectValid(ptr noundef %0, i32 noundef 4) #13
  br i1 %8, label %21, label %9

9:                                                ; preds = %2
  %10 = tail call zeroext i1 (ptr, ...) @SDL_SetError_REAL(ptr noundef nonnull @.str.2, ptr noundef nonnull @.str.3) #13
  %11 = load i32, ptr @SDL_joysticks_locked, align 4
  %12 = add nsw i32 %11, -1
  store i32 %12, ptr @SDL_joysticks_locked, align 4
  %.b4.i = load i1, ptr @SDL_joysticks_initialized, align 1
  %13 = icmp ne i32 %12, 0
  %or.cond.i = select i1 %.b4.i, i1 true, i1 %13
  br i1 %or.cond.i, label %.critedge.i, label %14

14:                                               ; preds = %9
  %15 = tail call i32 @SDL_GetAtomicInt_REAL(ptr noundef nonnull @SDL_joystick_lock_pending) #13
  %16 = icmp eq i32 %15, 0
  br i1 %16, label %17, label %.critedge.i

17:                                               ; preds = %14
  %18 = load ptr, ptr @SDL_joystick_lock, align 8
  tail call void @SDL_LockMutex_REAL(ptr noundef %18) #13
  %19 = load ptr, ptr @SDL_joystick_lock, align 8
  tail call void @SDL_UnlockMutex_REAL(ptr noundef %19) #13
  store ptr null, ptr @SDL_joystick_lock, align 8
  tail call void @SDL_UnlockMutex_REAL(ptr noundef %18) #13
  tail call void @SDL_DestroyMutex_REAL(ptr noundef %18) #13
  br label %SDL_UnlockJoysticks_REAL.exit

.critedge.i:                                      ; preds = %14, %9
  %20 = load ptr, ptr @SDL_joystick_lock, align 8
  tail call void @SDL_UnlockMutex_REAL(ptr noundef %20) #13
  br label %SDL_UnlockJoysticks_REAL.exit

21:                                               ; preds = %2
  %22 = getelementptr inbounds nuw i8, ptr %0, i64 112
  %23 = load i32, ptr %22, align 8
  %24 = icmp slt i32 %1, %23
  br i1 %24, label %25, label %32

25:                                               ; preds = %21
  %26 = getelementptr inbounds nuw i8, ptr %0, i64 120
  %27 = load ptr, ptr %26, align 8
  %28 = sext i32 %1 to i64
  %29 = getelementptr inbounds i8, ptr %27, i64 %28
  %30 = load i8, ptr %29, align 1, !range !26, !noundef !27
  %31 = trunc nuw i8 %30 to i1
  br label %34

32:                                               ; preds = %21
  %33 = tail call zeroext i1 (ptr, ...) @SDL_SetError_REAL(ptr noundef nonnull @.str.8, i32 noundef %23) #13
  br label %34

34:                                               ; preds = %32, %25
  %.0 = phi i1 [ %31, %25 ], [ false, %32 ]
  %35 = load i32, ptr @SDL_joysticks_locked, align 4
  %36 = add nsw i32 %35, -1
  store i32 %36, ptr @SDL_joysticks_locked, align 4
  %.b4.i10 = load i1, ptr @SDL_joysticks_initialized, align 1
  %37 = icmp ne i32 %36, 0
  %or.cond.i11 = select i1 %.b4.i10, i1 true, i1 %37
  br i1 %or.cond.i11, label %.critedge.i12, label %38

38:                                               ; preds = %34
  %39 = tail call i32 @SDL_GetAtomicInt_REAL(ptr noundef nonnull @SDL_joystick_lock_pending) #13
  %40 = icmp eq i32 %39, 0
  br i1 %40, label %41, label %.critedge.i12

41:                                               ; preds = %38
  %42 = load ptr, ptr @SDL_joystick_lock, align 8
  tail call void @SDL_LockMutex_REAL(ptr noundef %42) #13
  %43 = load ptr, ptr @SDL_joystick_lock, align 8
  tail call void @SDL_UnlockMutex_REAL(ptr noundef %43) #13
  store ptr null, ptr @SDL_joystick_lock, align 8
  tail call void @SDL_UnlockMutex_REAL(ptr noundef %42) #13
  tail call void @SDL_DestroyMutex_REAL(ptr noundef %42) #13
  br label %SDL_UnlockJoysticks_REAL.exit

.critedge.i12:                                    ; preds = %38, %34
  %44 = load ptr, ptr @SDL_joystick_lock, align 8
  tail call void @SDL_UnlockMutex_REAL(ptr noundef %44) #13
  br label %SDL_UnlockJoysticks_REAL.exit

SDL_UnlockJoysticks_REAL.exit:                    ; preds = %.critedge.i12, %41, %.critedge.i, %17
  %.07 = phi i1 [ false, %17 ], [ false, %.critedge.i ], [ %.0, %41 ], [ %.0, %.critedge.i12 ]
  ret i1 %.07
}